; Function Attrs: mustprogress nounwind uwtable
define hidden { i64, i64 } @_ZNK5clang6driver10toolchains21AMDGPUOpenMPToolChain22getSupportedSanitizersEv(ptr nocapture noundef nonnull readonly align 8 dereferenceable(4544) %0) unnamed_addr #0 align 2 {
  %2 = getelementptr inbounds nuw i8, ptr %0, i64 4536
  %3 = load ptr, ptr %2, align 8
  %4 = load ptr, ptr %3, align 8
  %5 = getelementptr inbounds i8, ptr %4, i64 704
  %6 = load ptr, ptr %5, align 8
  %7 = tail call { i64, i64 } %6(ptr noundef nonnull align 8 dereferenceable(2168) %3) #15
  ret { i64, i64 } %7
}